target datalayout = "e-m:e-p270:32:32-p271:32:32-p272:64:64-i64:64-i128:128-f80:128-n8:16:32:64-S128"
target triple = "x86_64-unknown-linux-gnu"

%"class.boost::detail::sp_counted_base" = type { ptr, i32, i32 }
%"class.boost::detail::sp_counted_impl_p.60" = type { %"class.boost::detail::sp_counted_base", ptr }

; Function Attrs: inlinehint mustprogress nounwind uwtable
define internal void @_ZN5boost14checked_deleteIN8QuantLib12_GLOBAL__N_116SparkSpreadPriceEEEvPT_(ptr noundef %x) #5 {
entry:
  %x.addr = alloca ptr, align 8
  store ptr %x, ptr %x.addr, align 8, !tbaa !3
  %0 = load ptr, ptr %x.addr, align 8, !tbaa !3
  %isnull = icmp eq ptr %0, null
  br i1 %isnull, label %delete.end, label %delete.notnull

delete.notnull:                                   ; preds = %entry
  %vtable = load ptr, ptr %0, align 8, !tbaa !12
  %vfn = getelementptr inbounds ptr, ptr %vtable, i64 1
  %1 = load ptr, ptr %vfn, align 8
  call void %1(ptr noundef nonnull align 8 dereferenceable(32) %0) #12
  br label %delete.end

delete.end:                                       ; preds = %delete.notnull, %entry
  ret void
}

; Function Attrs: mustprogress nounwind uwtable
define internal void @_ZN5boost6detail17sp_counted_impl_pIN8QuantLib12_GLOBAL__N_116SparkSpreadPriceEE7disposeEv(ptr noundef nonnull align 8 dereferenceable(24) %this) unnamed_addr #1 align 2 {
entry:
  %this.addr = alloca ptr, align 8
  store ptr %this, ptr %this.addr, align 8, !tbaa !3
  %this1 = load ptr, ptr %this.addr, align 8
  %px_ = getelementptr inbounds nuw %"class.boost::detail::sp_counted_impl_p.60", ptr %this1, i32 0, i32 1
  %0 = load ptr, ptr %px_, align 8, !tbaa !176
  call void @_ZN5boost14checked_deleteIN8QuantLib12_GLOBAL__N_116SparkSpreadPriceEEEvPT_(ptr noundef %0) #12
  ret void
}